target datalayout = "e-m:e-p270:32:32-p271:32:32-p272:64:64-i64:64-i128:128-f80:128-n8:16:32:64-S128"
target triple = "x86_64-pc-linux-gnu"

%struct._lv_matrix_t = type { [3 x [3 x float]] }

; Function Attrs: nounwind uwtable
define void @lv_matrix_multiply(ptr noundef %0, ptr noundef %1) #0 {
  %3 = alloca ptr, align 8
  %4 = alloca ptr, align 8
  %5 = alloca %struct._lv_matrix_t, align 4
  %6 = alloca i32, align 4
  %7 = alloca i32, align 4
  %8 = alloca i32, align 4
  store ptr %0, ptr %3, align 8, !tbaa !3
  store ptr %1, ptr %4, align 8, !tbaa !3
  call void @llvm.lifetime.start.p0(i64 36, ptr %5) #7
  call void @llvm.lifetime.start.p0(i64 4, ptr %6) #7
  store i32 0, ptr %6, align 4, !tbaa !9
  br label %9

9:                                                ; preds = %75, %2
  %10 = load i32, ptr %6, align 4, !tbaa !9
  %11 = icmp slt i32 %10, 3
  br i1 %11, label %13, label %12

12:                                               ; preds = %9
  store i32 2, ptr %7, align 4
  call void @llvm.lifetime.end.p0(i64 4, ptr %6) #7
  br label %78

13:                                               ; preds = %9
  call void @llvm.lifetime.start.p0(i64 4, ptr %8) #7
  store i32 0, ptr %8, align 4, !tbaa !9
  br label %14

14:                                               ; preds = %71, %13
  %15 = load i32, ptr %8, align 4, !tbaa !9
  %16 = icmp slt i32 %15, 3
  br i1 %16, label %18, label %17

17:                                               ; preds = %14
  store i32 5, ptr %7, align 4
  call void @llvm.lifetime.end.p0(i64 4, ptr %8) #7
  br label %74

18:                                               ; preds = %14
  %19 = load ptr, ptr %3, align 8, !tbaa !3
  %20 = getelementptr inbounds nuw %struct._lv_matrix_t, ptr %19, i32 0, i32 0
  %21 = load i32, ptr %6, align 4, !tbaa !9
  %22 = sext i32 %21 to i64
  %23 = getelementptr inbounds [3 x [3 x float]], ptr %20, i64 0, i64 %22
  %24 = getelementptr inbounds [3 x float], ptr %23, i64 0, i64 0
  %25 = load float, ptr %24, align 4, !tbaa !7
  %26 = load ptr, ptr %4, align 8, !tbaa !3
  %27 = getelementptr inbounds nuw %struct._lv_matrix_t, ptr %26, i32 0, i32 0
  %28 = getelementptr inbounds [3 x [3 x float]], ptr %27, i64 0, i64 0
  %29 = load i32, ptr %8, align 4, !tbaa !9
  %30 = sext i32 %29 to i64
  %31 = getelementptr inbounds [3 x float], ptr %28, i64 0, i64 %30
  %32 = load float, ptr %31, align 4, !tbaa !7
  %33 = load ptr, ptr %3, align 8, !tbaa !3
  %34 = getelementptr inbounds nuw %struct._lv_matrix_t, ptr %33, i32 0, i32 0
  %35 = load i32, ptr %6, align 4, !tbaa !9
  %36 = sext i32 %35 to i64
  %37 = getelementptr inbounds [3 x [3 x float]], ptr %34, i64 0, i64 %36
  %38 = getelementptr inbounds [3 x float], ptr %37, i64 0, i64 1
  %39 = load float, ptr %38, align 4, !tbaa !7
  %40 = load ptr, ptr %4, align 8, !tbaa !3
  %41 = getelementptr inbounds nuw %struct._lv_matrix_t, ptr %40, i32 0, i32 0
  %42 = getelementptr inbounds [3 x [3 x float]], ptr %41, i64 0, i64 1
  %43 = load i32, ptr %8, align 4, !tbaa !9
  %44 = sext i32 %43 to i64
  %45 = getelementptr inbounds [3 x float], ptr %42, i64 0, i64 %44
  %46 = load float, ptr %45, align 4, !tbaa !7
  %47 = fmul float %39, %46
  %48 = call float @llvm.fmuladd.f32(float %25, float %32, float %47)
  %49 = load ptr, ptr %3, align 8, !tbaa !3
  %50 = getelementptr inbounds nuw %struct._lv_matrix_t, ptr %49, i32 0, i32 0
  %51 = load i32, ptr %6, align 4, !tbaa !9
  %52 = sext i32 %51 to i64
  %53 = getelementptr inbounds [3 x [3 x float]], ptr %50, i64 0, i64 %52
  %54 = getelementptr inbounds [3 x float], ptr %53, i64 0, i64 2
  %55 = load float, ptr %54, align 4, !tbaa !7
  %56 = load ptr, ptr %4, align 8, !tbaa !3
  %57 = getelementptr inbounds nuw %struct._lv_matrix_t, ptr %56, i32 0, i32 0
  %58 = getelementptr inbounds [3 x [3 x float]], ptr %57, i64 0, i64 2
  %59 = load i32, ptr %8, align 4, !tbaa !9
  %60 = sext i32 %59 to i64
  %61 = getelementptr inbounds [3 x float], ptr %58, i64 0, i64 %60
  %62 = load float, ptr %61, align 4, !tbaa !7
  %63 = call float @llvm.fmuladd.f32(float %55, float %62, float %48)
  %64 = getelementptr inbounds nuw %struct._lv_matrix_t, ptr %5, i32 0, i32 0
  %65 = load i32, ptr %6, align 4, !tbaa !9
  %66 = sext i32 %65 to i64
  %67 = getelementptr inbounds [3 x [3 x float]], ptr %64, i64 0, i64 %66
  %68 = load i32, ptr %8, align 4, !tbaa !9
  %69 = sext i32 %68 to i64
  %70 = getelementptr inbounds [3 x float], ptr %67, i64 0, i64 %69
  store float %63, ptr %70, align 4, !tbaa !7
  br label %71

71:                                               ; preds = %18
  %72 = load i32, ptr %8, align 4, !tbaa !9
  %73 = add nsw i32 %72, 1
  store i32 %73, ptr %8, align 4, !tbaa !9
  br label %14, !llvm.loop !11

74:                                               ; preds = %17
  br label %75

75:                                               ; preds = %74
  %76 = load i32, ptr %6, align 4, !tbaa !9
  %77 = add nsw i32 %76, 1
  store i32 %77, ptr %6, align 4, !tbaa !9
  br label %9, !llvm.loop !13

78:                                               ; preds = %12
  %79 = load ptr, ptr %3, align 8, !tbaa !3
  %80 = call ptr @lv_memcpy(ptr noundef %79, ptr noundef %5, i64 noundef 36)
  call void @llvm.lifetime.end.p0(i64 36, ptr %5) #7
  ret void
}

; Function Attrs: nounwind uwtable
define void @lv_matrix_skew(ptr noundef %0, float noundef %1, float noundef %2) #0 {
  %4 = alloca ptr, align 8
  %5 = alloca float, align 4
  %6 = alloca float, align 4
  %7 = alloca float, align 4
  %8 = alloca float, align 4
  %9 = alloca float, align 4
  %10 = alloca float, align 4
  %11 = alloca %struct._lv_matrix_t, align 4
  store ptr %0, ptr %4, align 8, !tbaa !3
  store float %1, ptr %5, align 4, !tbaa !7
  store float %2, ptr %6, align 4, !tbaa !7
  call void @llvm.lifetime.start.p0(i64 4, ptr %7) #7
  %12 = load float, ptr %5, align 4, !tbaa !7
  %13 = fdiv float %12, 1.800000e+02
  %14 = fmul float %13, 0x400921FB60000000
  store float %14, ptr %7, align 4, !tbaa !7
  call void @llvm.lifetime.start.p0(i64 4, ptr %8) #7
  %15 = load float, ptr %6, align 4, !tbaa !7
  %16 = fdiv float %15, 1.800000e+02
  %17 = fmul float %16, 0x400921FB60000000
  store float %17, ptr %8, align 4, !tbaa !7
  call void @llvm.lifetime.start.p0(i64 4, ptr %9) #7
  %18 = load float, ptr %7, align 4, !tbaa !7
  %19 = call float @tanf(float noundef %18) #7, !tbaa !9
  store float %19, ptr %9, align 4, !tbaa !7
  call void @llvm.lifetime.start.p0(i64 4, ptr %10) #7
  %20 = load float, ptr %8, align 4, !tbaa !7
  %21 = call float @tanf(float noundef %20) #7, !tbaa !9
  store float %21, ptr %10, align 4, !tbaa !7
  call void @llvm.lifetime.start.p0(i64 36, ptr %11) #7
  %22 = getelementptr inbounds nuw %struct._lv_matrix_t, ptr %11, i32 0, i32 0
  store float 1.000000e+00, ptr %22, align 4, !tbaa !7
  %23 = getelementptr inbounds float, ptr %22, i64 1
  %24 = load float, ptr %9, align 4, !tbaa !7
  store float %24, ptr %23, align 4, !tbaa !7
  %25 = getelementptr inbounds float, ptr %22, i64 2
  store float 0.000000e+00, ptr %25, align 4, !tbaa !7
  %26 = getelementptr inbounds [3 x float], ptr %22, i64 1
  %27 = load float, ptr %10, align 4, !tbaa !7
  store float %27, ptr %26, align 4, !tbaa !7
  %28 = getelementptr inbounds float, ptr %26, i64 1
  store float 1.000000e+00, ptr %28, align 4, !tbaa !7
  %29 = getelementptr inbounds float, ptr %26, i64 2
  store float 0.000000e+00, ptr %29, align 4, !tbaa !7
  %30 = getelementptr inbounds [3 x float], ptr %22, i64 2
  store float 0.000000e+00, ptr %30, align 4, !tbaa !7
  %31 = getelementptr inbounds float, ptr %30, i64 1
  store float 0.000000e+00, ptr %31, align 4, !tbaa !7
  %32 = getelementptr inbounds float, ptr %30, i64 2
  store float 1.000000e+00, ptr %32, align 4, !tbaa !7
  %33 = load ptr, ptr %4, align 8, !tbaa !3
  call void @lv_matrix_multiply(ptr noundef %33, ptr noundef %11)
  call void @llvm.lifetime.end.p0(i64 36, ptr %11) #7
  call void @llvm.lifetime.end.p0(i64 4, ptr %10) #7
  call void @llvm.lifetime.end.p0(i64 4, ptr %9) #7
  call void @llvm.lifetime.end.p0(i64 4, ptr %8) #7
  call void @llvm.lifetime.end.p0(i64 4, ptr %7) #7
  ret void
}