; Function Attrs: nounwind uwtable
define void @lv_matrix_skew(ptr noundef %0, float noundef %1, float noundef %2) local_unnamed_addr #1 {
  %4 = alloca %struct._lv_matrix_t, align 4
  %5 = alloca %struct._lv_matrix_t, align 4
  %6 = fdiv float %1, 1.800000e+02
  %7 = fmul float %6, 0x400921FB60000000
  %8 = fdiv float %2, 1.800000e+02
  %9 = fmul float %8, 0x400921FB60000000
  %10 = tail call float @tanf(float noundef %7) #9, !tbaa !10
  %11 = tail call float @tanf(float noundef %9) #9, !tbaa !10
  call void @llvm.lifetime.start.p0(i64 36, ptr nonnull %5) #9
  store float 1.000000e+00, ptr %5, align 4, !tbaa !3
  %12 = getelementptr inbounds i8, ptr %5, i64 4
  store float %10, ptr %12, align 4, !tbaa !3
  %13 = getelementptr inbounds i8, ptr %5, i64 8
  store float 0.000000e+00, ptr %13, align 4, !tbaa !3
  %14 = getelementptr inbounds i8, ptr %5, i64 12
  store float %11, ptr %14, align 4, !tbaa !3
  %15 = getelementptr inbounds i8, ptr %5, i64 16
  store float 1.000000e+00, ptr %15, align 4, !tbaa !3
  %16 = getelementptr inbounds i8, ptr %5, i64 20
  store float 0.000000e+00, ptr %16, align 4, !tbaa !3
  %17 = getelementptr inbounds i8, ptr %5, i64 24
  store float 0.000000e+00, ptr %17, align 4, !tbaa !3
  %18 = getelementptr inbounds i8, ptr %5, i64 28
  store float 0.000000e+00, ptr %18, align 4, !tbaa !3
  %19 = getelementptr inbounds i8, ptr %5, i64 32
  store float 1.000000e+00, ptr %19, align 4, !tbaa !3
  call void @llvm.lifetime.start.p0(i64 36, ptr nonnull %4) #9
  br label %.preheader.i

.preheader.i:                                     ; preds = %26, %3
  %indvars.iv22.i = phi i64 [ 0, %3 ], [ %indvars.iv.next23.i, %26 ]
  %20 = getelementptr inbounds [3 x [3 x float]], ptr %0, i64 0, i64 %indvars.iv22.i
  %21 = load float, ptr %20, align 4, !tbaa !3
  %22 = getelementptr inbounds i8, ptr %20, i64 4
  %23 = load float, ptr %22, align 4, !tbaa !3
  %24 = getelementptr inbounds i8, ptr %20, i64 8
  %25 = load float, ptr %24, align 4, !tbaa !3
  br label %27

26:                                               ; preds = %27
  %indvars.iv.next23.i = add nuw nsw i64 %indvars.iv22.i, 1
  %exitcond25.not.i = icmp eq i64 %indvars.iv.next23.i, 3
  br i1 %exitcond25.not.i, label %lv_matrix_multiply.exit, label %.preheader.i, !llvm.loop !7

27:                                               ; preds = %27, %.preheader.i
  %indvars.iv.i = phi i64 [ 0, %.preheader.i ], [ %indvars.iv.next.i, %27 ]
  %28 = getelementptr inbounds [3 x float], ptr %5, i64 0, i64 %indvars.iv.i
  %29 = load float, ptr %28, align 4, !tbaa !3
  %30 = getelementptr inbounds [3 x float], ptr %14, i64 0, i64 %indvars.iv.i
  %31 = load float, ptr %30, align 4, !tbaa !3
  %32 = fmul float %23, %31
  %33 = tail call float @llvm.fmuladd.f32(float %21, float %29, float %32)
  %34 = getelementptr inbounds [3 x float], ptr %17, i64 0, i64 %indvars.iv.i
  %35 = load float, ptr %34, align 4, !tbaa !3
  %36 = tail call float @llvm.fmuladd.f32(float %25, float %35, float %33)
  %37 = getelementptr inbounds [3 x [3 x float]], ptr %4, i64 0, i64 %indvars.iv22.i, i64 %indvars.iv.i
  store float %36, ptr %37, align 4, !tbaa !3
  %indvars.iv.next.i = add nuw nsw i64 %indvars.iv.i, 1
  %exitcond.not.i = icmp eq i64 %indvars.iv.next.i, 3
  br i1 %exitcond.not.i, label %26, label %27, !llvm.loop !9

lv_matrix_multiply.exit:                          ; preds = %26
  %38 = call ptr @lv_memcpy(ptr noundef %0, ptr noundef nonnull %4, i64 noundef 36) #9
  call void @llvm.lifetime.end.p0(i64 36, ptr nonnull %4) #9
  call void @llvm.lifetime.end.p0(i64 36, ptr nonnull %5) #9
  ret void
}